target datalayout = "e-m:e-p270:32:32-p271:32:32-p272:64:64-i64:64-i128:128-f80:128-n8:16:32:64-S128"
target triple = "x86_64-pc-linux-gnu"

%struct.evp_pkey_st = type { i32, i32, ptr, ptr, ptr, %union.legacy_pkey_st, %union.legacy_pkey_st, %struct.CRYPTO_REF_COUNT, ptr, ptr, i32, i8, %struct.crypto_ex_data_st, ptr, ptr, i64, ptr, i64, %struct.anon }
%union.legacy_pkey_st = type { ptr }
%struct.CRYPTO_REF_COUNT = type { i32 }
%struct.crypto_ex_data_st = type { ptr, ptr }
%struct.anon = type { i32, i32, i32 }

@.str = private unnamed_addr constant [34 x i8] c"../openssl/crypto/x509/x_pubkey.c\00", align 1
@__func__.ossl_i2d_ED448_PUBKEY = private unnamed_addr constant [22 x i8] c"ossl_i2d_ED448_PUBKEY\00", align 1

; Function Attrs: nounwind uwtable
define i32 @ossl_i2d_ED448_PUBKEY(ptr noundef %0, ptr noundef %1) #0 {
  %3 = alloca i32, align 4
  %4 = alloca ptr, align 8
  %5 = alloca ptr, align 8
  %6 = alloca ptr, align 8
  %7 = alloca i32, align 4
  %8 = alloca i32, align 4
  store ptr %0, ptr %4, align 8, !tbaa !92
  store ptr %1, ptr %5, align 8, !tbaa !3
  call void @llvm.lifetime.start.p0(i64 8, ptr %6) #5
  call void @llvm.lifetime.start.p0(i64 4, ptr %7) #5
  %9 = load ptr, ptr %4, align 8, !tbaa !92
  %10 = icmp eq ptr %9, null
  br i1 %10, label %11, label %12

11:                                               ; preds = %2
  store i32 0, ptr %3, align 4
  store i32 1, ptr %8, align 4
  br label %27

12:                                               ; preds = %2
  %13 = call ptr @EVP_PKEY_new()
  store ptr %13, ptr %6, align 8, !tbaa !46
  %14 = icmp eq ptr %13, null
  br i1 %14, label %15, label %16

15:                                               ; preds = %12
  call void @ERR_new()
  call void @ERR_set_debug(ptr noundef @.str, i32 noundef 913, ptr noundef @__func__.ossl_i2d_ED448_PUBKEY)
  call void (i32, i32, ptr, ...) @ERR_set_error(i32 noundef 13, i32 noundef 524294, ptr noundef null)
  store i32 -1, ptr %3, align 4
  store i32 1, ptr %8, align 4
  br label %27

16:                                               ; preds = %12
  %17 = load ptr, ptr %6, align 8, !tbaa !46
  %18 = load ptr, ptr %4, align 8, !tbaa !92
  %19 = call i32 @EVP_PKEY_assign(ptr noundef %17, i32 noundef 1088, ptr noundef %18)
  %20 = load ptr, ptr %6, align 8, !tbaa !46
  %21 = load ptr, ptr %5, align 8, !tbaa !3
  %22 = call i32 @i2d_PUBKEY(ptr noundef %20, ptr noundef %21)
  store i32 %22, ptr %7, align 4, !tbaa !43
  %23 = load ptr, ptr %6, align 8, !tbaa !46
  %24 = getelementptr inbounds nuw %struct.evp_pkey_st, ptr %23, i32 0, i32 5
  store ptr null, ptr %24, align 8, !tbaa !75
  %25 = load ptr, ptr %6, align 8, !tbaa !46
  call void @EVP_PKEY_free(ptr noundef %25)
  %26 = load i32, ptr %7, align 4, !tbaa !43
  store i32 %26, ptr %3, align 4
  store i32 1, ptr %8, align 4
  br label %27

27:                                               ; preds = %16, %15, %11
  call void @llvm.lifetime.end.p0(i64 4, ptr %7) #5
  call void @llvm.lifetime.end.p0(i64 8, ptr %6) #5
  %28 = load i32, ptr %3, align 4
  ret i32 %28
}